target datalayout = "e-m:e-p270:32:32-p271:32:32-p272:64:64-i64:64-i128:128-f80:128-n8:16:32:64-S128"
target triple = "x86_64-pc-linux-gnu"

%"class.std::__cxx11::basic_string" = type { %"struct.std::__cxx11::basic_string<char>::_Alloc_hider", i64, %union.anon.0 }
%"struct.std::__cxx11::basic_string<char>::_Alloc_hider" = type { ptr }
%union.anon.0 = type { i64, [8 x i8] }
%"struct.benchmark::internal::BenchTimeType" = type { i32, %union.anon }
%union.anon = type { i64 }
%"class.benchmark::internal::BenchmarkRunner" = type { %"struct.benchmark::internal::RunResults", ptr, ptr, %"struct.benchmark::internal::BenchTimeType", double, double, i8, i32, i8, i32, %"class.std::vector.4", %"class.std::vector.9", i64, ptr }
%"struct.benchmark::internal::RunResults" = type <{ %"class.std::vector", %"class.std::vector", i8, i8, [6 x i8] }>
%"class.std::vector" = type { %"struct.std::_Vector_base" }
%"struct.std::_Vector_base" = type { %"struct.std::_Vector_base<benchmark::BenchmarkReporter::Run, std::allocator<benchmark::BenchmarkReporter::Run>>::_Vector_impl" }
%"struct.std::_Vector_base<benchmark::BenchmarkReporter::Run, std::allocator<benchmark::BenchmarkReporter::Run>>::_Vector_impl" = type { %"struct.std::_Vector_base<benchmark::BenchmarkReporter::Run, std::allocator<benchmark::BenchmarkReporter::Run>>::_Vector_impl_data" }
%"struct.std::_Vector_base<benchmark::BenchmarkReporter::Run, std::allocator<benchmark::BenchmarkReporter::Run>>::_Vector_impl_data" = type { ptr, ptr, ptr }
%"class.std::vector.4" = type { %"struct.std::_Vector_base.5" }
%"struct.std::_Vector_base.5" = type { %"struct.std::_Vector_base<std::thread, std::allocator<std::thread>>::_Vector_impl" }
%"struct.std::_Vector_base<std::thread, std::allocator<std::thread>>::_Vector_impl" = type { %"struct.std::_Vector_base<std::thread, std::allocator<std::thread>>::_Vector_impl_data" }
%"struct.std::_Vector_base<std::thread, std::allocator<std::thread>>::_Vector_impl_data" = type { ptr, ptr, ptr }
%"class.std::vector.9" = type { %"struct.std::_Vector_base.10" }
%"struct.std::_Vector_base.10" = type { %"struct.std::_Vector_base<benchmark::MemoryManager::Result, std::allocator<benchmark::MemoryManager::Result>>::_Vector_impl" }
%"struct.std::_Vector_base<benchmark::MemoryManager::Result, std::allocator<benchmark::MemoryManager::Result>>::_Vector_impl" = type { %"struct.std::_Vector_base<benchmark::MemoryManager::Result, std::allocator<benchmark::MemoryManager::Result>>::_Vector_impl_data" }
%"struct.std::_Vector_base<benchmark::MemoryManager::Result, std::allocator<benchmark::MemoryManager::Result>>::_Vector_impl_data" = type { ptr, ptr, ptr }
%"class.benchmark::internal::BenchmarkInstance" = type { %"struct.benchmark::BenchmarkName", ptr, i32, i32, i32, ptr, i32, i8, i8, i8, i32, ptr, %"class.std::map", ptr, i32, double, double, i64, i32, ptr, ptr }
%"struct.benchmark::BenchmarkName" = type { %"class.std::__cxx11::basic_string", %"class.std::__cxx11::basic_string", %"class.std::__cxx11::basic_string", %"class.std::__cxx11::basic_string", %"class.std::__cxx11::basic_string", %"class.std::__cxx11::basic_string", %"class.std::__cxx11::basic_string", %"class.std::__cxx11::basic_string" }
%"class.std::map" = type { %"class.std::_Rb_tree" }
%"class.std::_Rb_tree" = type { %"struct.std::_Rb_tree<std::__cxx11::basic_string<char>, std::pair<const std::__cxx11::basic_string<char>, benchmark::Counter>, std::_Select1st<std::pair<const std::__cxx11::basic_string<char>, benchmark::Counter>>, std::less<std::__cxx11::basic_string<char>>>::_Rb_tree_impl" }
%"struct.std::_Rb_tree<std::__cxx11::basic_string<char>, std::pair<const std::__cxx11::basic_string<char>, benchmark::Counter>, std::_Select1st<std::pair<const std::__cxx11::basic_string<char>, benchmark::Counter>>, std::less<std::__cxx11::basic_string<char>>>::_Rb_tree_impl" = type { [8 x i8], %"struct.std::_Rb_tree_header" }
%"struct.std::_Rb_tree_header" = type { %"struct.std::_Rb_tree_node_base", i64 }
%"struct.std::_Rb_tree_node_base" = type { i32, ptr, ptr, ptr }
%"struct.benchmark::internal::BenchmarkRunner::IterationResults" = type { %"struct.benchmark::internal::ThreadManager::Result", i64, double }
%"struct.benchmark::internal::ThreadManager::Result" = type { i64, double, double, double, i64, %"class.std::__cxx11::basic_string", %"class.std::__cxx11::basic_string", i32, %"class.std::map" }

@_ZN9benchmark23FLAGS_benchmark_dry_runE = external global i8, align 1

; Function Attrs: mustprogress nounwind uwtable
define linkonce_odr hidden noundef zeroext i1 @_ZNK9benchmark8internal17BenchmarkInstance15use_manual_timeEv(ptr noundef nonnull align 8 dereferenceable(424) %0) #7 comdat align 2 {
  %2 = alloca ptr, align 8
  store ptr %0, ptr %2, align 8, !tbaa !34
  %3 = load ptr, ptr %2, align 8
  %4 = getelementptr inbounds nuw %"class.benchmark::internal::BenchmarkInstance", ptr %3, i32 0, i32 9
  %5 = load i8, ptr %4, align 2, !tbaa !164, !range !22, !noundef !23
  %6 = trunc i8 %5 to i1
  ret i1 %6
}

; Function Attrs: mustprogress nounwind uwtable
define hidden noundef double @_ZNK9benchmark8internal15BenchmarkRunner17GetMinTimeToApplyEv(ptr noundef nonnull align 8 dereferenceable(184) %0) #7 align 2 {
  %2 = alloca ptr, align 8
  store ptr %0, ptr %2, align 8, !tbaa !32
  %3 = load ptr, ptr %2, align 8
  %4 = getelementptr inbounds nuw %"class.benchmark::internal::BenchmarkRunner", ptr %3, i32 0, i32 6
  %5 = load i8, ptr %4, align 8, !tbaa !61, !range !22, !noundef !23
  %6 = trunc i8 %5 to i1
  br i1 %6, label %7, label %10

7:                                                ; preds = %1
  %8 = getelementptr inbounds nuw %"class.benchmark::internal::BenchmarkRunner", ptr %3, i32 0, i32 4
  %9 = load double, ptr %8, align 8, !tbaa !58
  br label %13

10:                                               ; preds = %1
  %11 = getelementptr inbounds nuw %"class.benchmark::internal::BenchmarkRunner", ptr %3, i32 0, i32 5
  %12 = load double, ptr %11, align 8, !tbaa !60
  br label %13

13:                                               ; preds = %10, %7
  %14 = phi double [ %9, %7 ], [ %12, %10 ]
  ret double %14
}

; Function Attrs: mustprogress uwtable
define hidden noundef zeroext i1 @_ZNK9benchmark8internal15BenchmarkRunner28ShouldReportIterationResultsERKNS1_16IterationResultsE(ptr noundef nonnull align 8 dereferenceable(184) %0, ptr noundef nonnull align 8 dereferenceable(176) %1) #5 align 2 {
  %3 = alloca ptr, align 8
  %4 = alloca ptr, align 8
  store ptr %0, ptr %3, align 8, !tbaa !32
  store ptr %1, ptr %4, align 8, !tbaa !155
  %5 = load ptr, ptr %3, align 8
  %6 = load ptr, ptr %4, align 8, !tbaa !155
  %7 = getelementptr inbounds nuw %"struct.benchmark::internal::BenchmarkRunner::IterationResults", ptr %6, i32 0, i32 0
  %8 = getelementptr inbounds nuw %"struct.benchmark::internal::ThreadManager::Result", ptr %7, i32 0, i32 7
  %9 = load i32, ptr %8, align 8, !tbaa !166
  %10 = icmp ne i32 %9, 0
  br i1 %10, label %40, label %11

11:                                               ; preds = %2
  %12 = load i8, ptr @_ZN9benchmark23FLAGS_benchmark_dry_runE, align 1, !tbaa !20, !range !22, !noundef !23
  %13 = trunc i8 %12 to i1
  br i1 %13, label %40, label %14

14:                                               ; preds = %11
  %15 = load ptr, ptr %4, align 8, !tbaa !155
  %16 = getelementptr inbounds nuw %"struct.benchmark::internal::BenchmarkRunner::IterationResults", ptr %15, i32 0, i32 1
  %17 = load i64, ptr %16, align 8, !tbaa !123
  %18 = icmp sge i64 %17, 1000000000000
  br i1 %18, label %40, label %19

19:                                               ; preds = %14
  %20 = load ptr, ptr %4, align 8, !tbaa !155
  %21 = getelementptr inbounds nuw %"struct.benchmark::internal::BenchmarkRunner::IterationResults", ptr %20, i32 0, i32 2
  %22 = load double, ptr %21, align 8, !tbaa !125
  %23 = call noundef double @_ZNK9benchmark8internal15BenchmarkRunner17GetMinTimeToApplyEv(ptr noundef nonnull align 8 dereferenceable(184) %5)
  %24 = fcmp oge double %22, %23
  br i1 %24, label %40, label %25

25:                                               ; preds = %19
  %26 = load ptr, ptr %4, align 8, !tbaa !155
  %27 = getelementptr inbounds nuw %"struct.benchmark::internal::BenchmarkRunner::IterationResults", ptr %26, i32 0, i32 0
  %28 = getelementptr inbounds nuw %"struct.benchmark::internal::ThreadManager::Result", ptr %27, i32 0, i32 1
  %29 = load double, ptr %28, align 8, !tbaa !127
  %30 = call noundef double @_ZNK9benchmark8internal15BenchmarkRunner17GetMinTimeToApplyEv(ptr noundef nonnull align 8 dereferenceable(184) %5)
  %31 = fmul double 5.000000e+00, %30
  %32 = fcmp oge double %29, %31
  br i1 %32, label %33, label %38

33:                                               ; preds = %25
  %34 = getelementptr inbounds nuw %"class.benchmark::internal::BenchmarkRunner", ptr %5, i32 0, i32 1
  %35 = load ptr, ptr %34, align 8, !tbaa !59
  %36 = call noundef zeroext i1 @_ZNK9benchmark8internal17BenchmarkInstance15use_manual_timeEv(ptr noundef nonnull align 8 dereferenceable(424) %35)
  %37 = xor i1 %36, true
  br label %38

38:                                               ; preds = %33, %25
  %39 = phi i1 [ false, %25 ], [ %37, %33 ]
  br label %40

40:                                               ; preds = %38, %19, %14, %11, %2
  %41 = phi i1 [ true, %19 ], [ true, %14 ], [ true, %11 ], [ true, %2 ], [ %39, %38 ]
  ret i1 %41
}