; Function Attrs: mustprogress nofree norecurse nosync nounwind willreturn memory(read, inaccessiblemem: none) uwtable
define hidden noundef zeroext i1 @_ZNK9benchmark8internal15BenchmarkRunner28ShouldReportIterationResultsERKNS1_16IterationResultsE(ptr noundef nonnull readonly align 8 captures(none) dereferenceable(184) %0, ptr noundef nonnull readonly align 8 captures(none) dereferenceable(176) %1) local_unnamed_addr #13 align 2 {
  %3 = getelementptr inbounds nuw i8, ptr %1, i64 104
  %4 = load i32, ptr %3, align 8, !tbaa !183
  %.not = icmp eq i32 %4, 0
  br i1 %.not, label %5, label %31

5:                                                ; preds = %2
  %6 = load i8, ptr @_ZN9benchmark23FLAGS_benchmark_dry_runE, align 1, !tbaa !46, !range !47, !noundef !48
  %7 = trunc nuw i8 %6 to i1
  %8 = getelementptr inbounds nuw i8, ptr %1, i64 160
  %9 = load i64, ptr %8, align 8
  %10 = icmp sgt i64 %9, 999999999999
  %or.cond = select i1 %7, i1 true, i1 %10
  br i1 %or.cond, label %31, label %11

11:                                               ; preds = %5
  %12 = getelementptr inbounds nuw i8, ptr %1, i64 168
  %13 = load double, ptr %12, align 8, !tbaa !147
  %14 = getelementptr inbounds nuw i8, ptr %0, i64 104
  %15 = load i8, ptr %14, align 8, !tbaa !72, !range !47, !noundef !48
  %16 = trunc nuw i8 %15 to i1
  %.in.v.i = select i1 %16, i64 88, i64 96
  %.in.i = getelementptr inbounds nuw i8, ptr %0, i64 %.in.v.i
  %17 = load double, ptr %.in.i, align 8, !tbaa !70
  %18 = fcmp ult double %13, %17
  br i1 %18, label %19, label %31

19:                                               ; preds = %11
  %20 = getelementptr inbounds nuw i8, ptr %1, i64 8
  %21 = load double, ptr %20, align 8, !tbaa !184
  %22 = fmul double %17, 5.000000e+00
  %23 = fcmp ult double %21, %22
  br i1 %23, label %31, label %24

24:                                               ; preds = %19
  %25 = getelementptr inbounds nuw i8, ptr %0, i64 56
  %26 = load ptr, ptr %25, align 8, !tbaa !50
  %27 = getelementptr inbounds nuw i8, ptr %26, i64 294
  %28 = load i8, ptr %27, align 2, !tbaa !148, !range !47, !noundef !48
  %29 = trunc nuw i8 %28 to i1
  %30 = xor i1 %29, true
  br label %31

31:                                               ; preds = %19, %24, %11, %5, %2
  %32 = phi i1 [ true, %11 ], [ true, %5 ], [ true, %2 ], [ false, %19 ], [ %30, %24 ]
  ret i1 %32
}